; Function Attrs: mustprogress uwtable
define void @_ZN7openvdb5v11_08GridBase7setNameERKNSt7__cxx1112basic_stringIcSt11char_traitsIcESaIcEEE(ptr noundef nonnull align 8 dereferenceable(72) %this, ptr noundef nonnull align 8 dereferenceable(32) %name) local_unnamed_addr #5 align 2 personality ptr @__gxx_personality_v0 {
entry:
  %ref.tmp = alloca %"class.std::__cxx11::basic_string", align 8
  %ref.tmp2 = alloca %"class.std::allocator.0", align 1
  %ref.tmp5 = alloca %"class.std::__cxx11::basic_string", align 8
  %ref.tmp6 = alloca %"class.std::allocator.0", align 1
  %ref.tmp9 = alloca %"class.openvdb::v11_0::TypedMetadata", align 8
  call void @_ZNSaIcEC1Ev(ptr noundef nonnull align 1 dereferenceable(1) %ref.tmp2) #18
  %call.i6 = invoke noundef ptr @_ZNSt7__cxx1112basic_stringIcSt11char_traitsIcESaIcEE13_M_local_dataEv(ptr noundef nonnull align 8 dereferenceable(32) %ref.tmp)
          to label %call.i.noexc unwind label %lpad

call.i.noexc:                                     ; preds = %entry
  invoke void @_ZNSt7__cxx1112basic_stringIcSt11char_traitsIcESaIcEE12_Alloc_hiderC1EPcRKS3_(ptr noundef nonnull align 8 dereferenceable(8) %ref.tmp, ptr noundef %call.i6, ptr noundef nonnull align 1 dereferenceable(1) %ref.tmp2)
          to label %.noexc unwind label %lpad

.noexc:                                           ; preds = %call.i.noexc
  invoke void @_ZNSt7__cxx1112basic_stringIcSt11char_traitsIcESaIcEE12_M_constructIPKcEEvT_S8_St20forward_iterator_tag(ptr noundef nonnull align 8 dereferenceable(32) %ref.tmp, ptr noundef nonnull @.str.4, ptr noundef nonnull getelementptr inbounds ([5 x i8], ptr @.str.4, i64 0, i64 4))
          to label %invoke.cont unwind label %lpad.i

lpad.i:                                           ; preds = %.noexc
  %0 = landingpad { ptr, i32 }
          cleanup
  call void @_ZNSaIcED2Ev(ptr noundef nonnull align 1 dereferenceable(1) %ref.tmp) #18
  br label %eh.resume

invoke.cont:                                      ; preds = %.noexc
  invoke void @_ZN7openvdb5v11_07MetaMap10removeMetaERKNSt7__cxx1112basic_stringIcSt11char_traitsIcESaIcEEE(ptr noundef nonnull align 8 dereferenceable(56) %this, ptr noundef nonnull align 8 dereferenceable(32) %ref.tmp)
          to label %invoke.cont4 unwind label %lpad3

invoke.cont4:                                     ; preds = %invoke.cont
  call void @_ZNSt7__cxx1112basic_stringIcSt11char_traitsIcESaIcEED1Ev(ptr noundef nonnull align 8 dereferenceable(32) %ref.tmp) #18
  call void @_ZNSaIcED1Ev(ptr noundef nonnull align 1 dereferenceable(1) %ref.tmp2) #18
  call void @_ZNSaIcEC1Ev(ptr noundef nonnull align 1 dereferenceable(1) %ref.tmp6) #18
  %call.i11 = invoke noundef ptr @_ZNSt7__cxx1112basic_stringIcSt11char_traitsIcESaIcEE13_M_local_dataEv(ptr noundef nonnull align 8 dereferenceable(32) %ref.tmp5)
          to label %call.i.noexc10 unwind label %lpad7

call.i.noexc10:                                   ; preds = %invoke.cont4
  invoke void @_ZNSt7__cxx1112basic_stringIcSt11char_traitsIcESaIcEE12_Alloc_hiderC1EPcRKS3_(ptr noundef nonnull align 8 dereferenceable(8) %ref.tmp5, ptr noundef %call.i11, ptr noundef nonnull align 1 dereferenceable(1) %ref.tmp6)
          to label %.noexc12 unwind label %lpad7

.noexc12:                                         ; preds = %call.i.noexc10
  invoke void @_ZNSt7__cxx1112basic_stringIcSt11char_traitsIcESaIcEE12_M_constructIPKcEEvT_S8_St20forward_iterator_tag(ptr noundef nonnull align 8 dereferenceable(32) %ref.tmp5, ptr noundef nonnull @.str.4, ptr noundef nonnull getelementptr inbounds ([5 x i8], ptr @.str.4, i64 0, i64 4))
          to label %invoke.cont8 unwind label %lpad.i9

lpad.i9:                                          ; preds = %.noexc12
  %1 = landingpad { ptr, i32 }
          cleanup
  call void @_ZNSaIcED2Ev(ptr noundef nonnull align 1 dereferenceable(1) %ref.tmp5) #18
  br label %eh.resume

invoke.cont8:                                     ; preds = %.noexc12
  store ptr getelementptr inbounds ({ [12 x ptr] }, ptr @_ZTVN7openvdb5v11_013TypedMetadataINSt7__cxx1112basic_stringIcSt11char_traitsIcESaIcEEEEE, i64 0, i32 0, i64 2), ptr %ref.tmp9, align 8
  %mValue.i = getelementptr inbounds i8, ptr %ref.tmp9, i64 8
  invoke void @_ZNSt7__cxx1112basic_stringIcSt11char_traitsIcESaIcEEC1ERKS4_(ptr noundef nonnull align 8 dereferenceable(32) %mValue.i, ptr noundef nonnull align 8 dereferenceable(32) %name)
          to label %invoke.cont11 unwind label %lpad10

invoke.cont11:                                    ; preds = %invoke.cont8
  invoke void @_ZN7openvdb5v11_07MetaMap10insertMetaERKNSt7__cxx1112basic_stringIcSt11char_traitsIcESaIcEEERKNS0_8MetadataE(ptr noundef nonnull align 8 dereferenceable(56) %this, ptr noundef nonnull align 8 dereferenceable(32) %ref.tmp5, ptr noundef nonnull align 8 dereferenceable(8) %ref.tmp9)
          to label %invoke.cont13 unwind label %lpad12

invoke.cont13:                                    ; preds = %invoke.cont11
  store ptr getelementptr inbounds ({ [12 x ptr] }, ptr @_ZTVN7openvdb5v11_013TypedMetadataINSt7__cxx1112basic_stringIcSt11char_traitsIcESaIcEEEEE, i64 0, i32 0, i64 2), ptr %ref.tmp9, align 8
  call void @_ZNSt7__cxx1112basic_stringIcSt11char_traitsIcESaIcEED1Ev(ptr noundef nonnull align 8 dereferenceable(32) %mValue.i) #18
  call void @_ZNSt7__cxx1112basic_stringIcSt11char_traitsIcESaIcEED1Ev(ptr noundef nonnull align 8 dereferenceable(32) %ref.tmp5) #18
  call void @_ZNSaIcED1Ev(ptr noundef nonnull align 1 dereferenceable(1) %ref.tmp6) #18
  ret void

lpad:                                             ; preds = %call.i.noexc, %entry
  %2 = landingpad { ptr, i32 }
          cleanup
  br label %eh.resume

lpad3:                                            ; preds = %invoke.cont
  %3 = landingpad { ptr, i32 }
          cleanup
  call void @_ZNSt7__cxx1112basic_stringIcSt11char_traitsIcESaIcEED1Ev(ptr noundef nonnull align 8 dereferenceable(32) %ref.tmp) #18
  br label %eh.resume

lpad7:                                            ; preds = %call.i.noexc10, %invoke.cont4
  %4 = landingpad { ptr, i32 }
          cleanup
  br label %eh.resume

lpad10:                                           ; preds = %invoke.cont8
  %5 = landingpad { ptr, i32 }
          cleanup
  br label %ehcleanup15

lpad12:                                           ; preds = %invoke.cont11
  %6 = landingpad { ptr, i32 }
          cleanup
  store ptr getelementptr inbounds ({ [12 x ptr] }, ptr @_ZTVN7openvdb5v11_013TypedMetadataINSt7__cxx1112basic_stringIcSt11char_traitsIcESaIcEEEEE, i64 0, i32 0, i64 2), ptr %ref.tmp9, align 8
  call void @_ZNSt7__cxx1112basic_stringIcSt11char_traitsIcESaIcEED1Ev(ptr noundef nonnull align 8 dereferenceable(32) %mValue.i) #18
  br label %ehcleanup15

ehcleanup15:                                      ; preds = %lpad12, %lpad10
  %.pn2 = phi { ptr, i32 } [ %6, %lpad12 ], [ %5, %lpad10 ]
  call void @_ZNSt7__cxx1112basic_stringIcSt11char_traitsIcESaIcEED1Ev(ptr noundef nonnull align 8 dereferenceable(32) %ref.tmp5) #18
  br label %eh.resume

eh.resume:                                        ; preds = %ehcleanup15, %lpad.i9, %lpad7, %lpad3, %lpad.i, %lpad
  %ref.tmp6.sink = phi ptr [ %ref.tmp2, %lpad ], [ %ref.tmp2, %lpad.i ], [ %ref.tmp2, %lpad3 ], [ %ref.tmp6, %lpad7 ], [ %ref.tmp6, %lpad.i9 ], [ %ref.tmp6, %ehcleanup15 ]
  %.pn2.pn.pn = phi { ptr, i32 } [ %2, %lpad ], [ %0, %lpad.i ], [ %3, %lpad3 ], [ %4, %lpad7 ], [ %1, %lpad.i9 ], [ %.pn2, %ehcleanup15 ]
  call void @_ZNSaIcED1Ev(ptr noundef nonnull align 1 dereferenceable(1) %ref.tmp6.sink) #18
  resume { ptr, i32 } %.pn2.pn.pn
}